ccopy_reg
_reconstructor
p0
(cgoogle.oauth2.credentials
Credentials
p1
c__builtin__
object
p2
Ntp3
Rp4
(dp5
S'_quota_project_id'
p6
NsS'_token_uri'
p7
Vhttps://oauth2.googleapis.com/token
p8
sS'_client_secret'
p9
VsB1Bg9RrSzfoSEEly__3KgyG
p10
sS'_id_token'
p11
NsS'token'
p12
Vya29.a0AfH6SMCrueZmPcbcvpsmrS-lq7S7iwlcUqxzSwQFLJIrtt8ciMqMWUhQf2iPhrkpxNFSIjDWp3ljoy3d0B_i4krg3yIHt6KOt7bxZNZx6GCJDBjpNtesPAfVqsw-mXq90sw3dBbBqDh-mK1T4qwX5Ubj8HC48Y421JyKYw
p13
sS'_refresh_token'
p14
V1//0dybHefZwZz7tCgYIARAAGA0SNwF-L9Irp-YZnm147tc_vTWqqR1Tyd76J3r2TiiN1VllX4EcIu9vabegstaU01B0H4ACgwJVZC4
p15
sS'_scopes'
p16
(lp17
S'https://www.googleapis.com/auth/spreadsheets.readonly'
p18
asS'_client_id'
p19
V516989941074-tdkma8lsji7mtksos3c72il6a1mq6u1c.apps.googleusercontent.com
p20
sS'expiry'
p21
cdatetime
datetime
p22
(S'\x07\xe4\x07\x06\x05/\x0e\x00:\x0f'
p23
tp24
Rp25
sb.