ccopy_reg
_reconstructor
p0
(cgoogle.oauth2.credentials
Credentials
p1
c__builtin__
object
p2
Ntp3
Rp4
(dp5
S'_quota_project_id'
p6
NsS'_token_uri'
p7
Vhttps://oauth2.googleapis.com/token
p8
sS'_client_secret'
p9
V-IDJaGJAfXYMsGeCOxxhpD6Y
p10
sS'_id_token'
p11
NsS'token'
p12
Vya29.a0AfH6SMDIH2dMlq94rhib7IuryCy-BM6aYMLiBgyGpSsIH9DbMRx3f856XfgRYFN5VXUCW0czLS3z9O0AxqfcHuznQvbROmPcWYLIBG0Q4qvvCpahAJIRZHyE8CAWr7qZ3seYzmtft5iC5NaeXErqiokbvzpzYoi8Fk4
p13
sS'_refresh_token'
p14
V1//0dqXwqLhO-4FnCgYIARAAGA0SNwF-L9IrSqwpkmoBK9beKq5DZseVBdNSX4P-t6w6RDJSGkwisnnjrdhhZ8e1bSTnfqblaDeZJcA
p15
sS'_scopes'
p16
(lp17
S'https://www.googleapis.com/auth/spreadsheets.readonly'
p18
asS'_client_id'
p19
V516989941074-hccuse1bhot0imk8qev44j340o12knjh.apps.googleusercontent.com
p20
sS'expiry'
p21
cdatetime
datetime
p22
(S'\x07\xe4\x05\x17\x15\x04\x0b\x07<+'
p23
tp24
Rp25
sb.